; Function Attrs: mustprogress uwtable
define hidden noundef zeroext i1 @_ZN4cvc58internal6theory2fp14symfpuSymbolic20symbolicRoundingMode13checkNodeTypeENS0_12NodeTemplateILb0EEE(ptr noundef nonnull readnone align 8 captures(none) dereferenceable(8) %0, ptr noundef nonnull %1) local_unnamed_addr #3 align 2 personality ptr @__gxx_personality_v0 {
  %3 = alloca %"class.cvc5::internal::TypeNode", align 8
  call void @llvm.lifetime.start.p0(i64 8, ptr nonnull %3) #23
  call void @_ZNK4cvc58internal12NodeTemplateILb0EE7getTypeEb(ptr dead_on_unwind nonnull writable sret(%"class.cvc5::internal::TypeNode") align 8 %3, ptr noundef nonnull align 8 dereferenceable(8) %1, i1 noundef zeroext false)
  %4 = invoke noundef zeroext i1 @_ZNK4cvc58internal8TypeNode11isBitVectorEj(ptr noundef nonnull align 8 dereferenceable(8) %3, i32 noundef 5)
          to label %5 unwind label %19

5:                                                ; preds = %2
  %6 = load ptr, ptr %3, align 8, !tbaa !3
  %7 = load i64, ptr %6, align 8
  %8 = and i64 %7, 1152920405095219200
  %.not.i.i = icmp eq i64 %8, 1152920405095219200
  br i1 %.not.i.i, label %_ZN4cvc58internal8TypeNodeD2Ev.exit, label %9, !prof !9

9:                                                ; preds = %5
  %10 = add i64 %7, 1152920405095219200
  %11 = and i64 %10, 1152920405095219200
  %12 = and i64 %7, -1152920405095219201
  %13 = or disjoint i64 %11, %12
  store i64 %13, ptr %6, align 8
  %14 = icmp eq i64 %11, 0
  br i1 %14, label %15, label %_ZN4cvc58internal8TypeNodeD2Ev.exit, !prof !9

15:                                               ; preds = %9
  invoke void @_ZN4cvc58internal4expr9NodeValue15markForDeletionEv(ptr noundef nonnull align 8 dereferenceable(24) %6)
          to label %_ZN4cvc58internal8TypeNodeD2Ev.exit unwind label %16

16:                                               ; preds = %15
  %17 = landingpad { ptr, i32 }
          catch ptr null
  %18 = extractvalue { ptr, i32 } %17, 0
  call void @__clang_call_terminate(ptr %18) #24
  unreachable

_ZN4cvc58internal8TypeNodeD2Ev.exit:              ; preds = %5, %9, %15
  call void @llvm.lifetime.end.p0(i64 8, ptr nonnull %3) #23
  ret i1 %4

19:                                               ; preds = %2
  %20 = landingpad { ptr, i32 }
          cleanup
  call void @_ZN4cvc58internal8TypeNodeD2Ev(ptr noundef nonnull align 8 dereferenceable(8) %3) #23
  call void @llvm.lifetime.end.p0(i64 8, ptr nonnull %3) #23
  resume { ptr, i32 } %20
}